target datalayout = "e-m:e-p270:32:32-p271:32:32-p272:64:64-i64:64-i128:128-f80:128-n8:16:32:64-S128"
target triple = "x86_64-pc-linux-gnu"

%"class.std::__cxx11::basic_string" = type { %"struct.std::__cxx11::basic_string<char>::_Alloc_hider", i64, %union.anon }
%"struct.std::__cxx11::basic_string<char>::_Alloc_hider" = type { ptr }
%union.anon = type { i64, [8 x i8] }
%class.Variable = type { ptr, %"class.std::vector.18", %"class.std::__cxx11::basic_string", ptr, ptr, i8, i8, i8, i8, i8, i8, ptr, i8, %class.CVQualifiers }
%"class.std::vector.18" = type { %"struct.std::_Vector_base.19" }
%"struct.std::_Vector_base.19" = type { %"struct.std::_Vector_base<Variable *, std::allocator<Variable *>>::_Vector_impl" }
%"struct.std::_Vector_base<Variable *, std::allocator<Variable *>>::_Vector_impl" = type { %"struct.std::_Vector_base<Variable *, std::allocator<Variable *>>::_Vector_impl_data" }
%"struct.std::_Vector_base<Variable *, std::allocator<Variable *>>::_Vector_impl_data" = type { ptr, ptr, ptr }
%class.CVQualifiers = type { ptr, i8, i8, %"class.std::vector.23", %"class.std::vector.23" }
%"class.std::vector.23" = type { %"struct.std::_Bvector_base" }
%"struct.std::_Bvector_base" = type { %"struct.std::_Bvector_base<std::allocator<bool>>::_Bvector_impl" }
%"struct.std::_Bvector_base<std::allocator<bool>>::_Bvector_impl" = type { %"struct.std::_Bvector_base<std::allocator<bool>>::_Bvector_impl_data" }
%"struct.std::_Bvector_base<std::allocator<bool>>::_Bvector_impl_data" = type { %"struct.std::_Bit_iterator", %"struct.std::_Bit_iterator", ptr }
%"struct.std::_Bit_iterator" = type { %"struct.std::_Bit_iterator_base.base", [4 x i8] }
%"struct.std::_Bit_iterator_base.base" = type <{ ptr, i32 }>
%class.Type = type { i32, ptr, i32, %"class.std::vector.28", %"class.std::vector.33", i32, i8, i8, i8, i8, i8, %"class.std::vector.38", %"class.std::vector.43" }
%"class.std::vector.28" = type { %"struct.std::_Vector_base.29" }
%"struct.std::_Vector_base.29" = type { %"struct.std::_Vector_base<unsigned int, std::allocator<unsigned int>>::_Vector_impl" }
%"struct.std::_Vector_base<unsigned int, std::allocator<unsigned int>>::_Vector_impl" = type { %"struct.std::_Vector_base<unsigned int, std::allocator<unsigned int>>::_Vector_impl_data" }
%"struct.std::_Vector_base<unsigned int, std::allocator<unsigned int>>::_Vector_impl_data" = type { ptr, ptr, ptr }
%"class.std::vector.33" = type { %"struct.std::_Vector_base.34" }
%"struct.std::_Vector_base.34" = type { %"struct.std::_Vector_base<const Type *, std::allocator<const Type *>>::_Vector_impl" }
%"struct.std::_Vector_base<const Type *, std::allocator<const Type *>>::_Vector_impl" = type { %"struct.std::_Vector_base<const Type *, std::allocator<const Type *>>::_Vector_impl_data" }
%"struct.std::_Vector_base<const Type *, std::allocator<const Type *>>::_Vector_impl_data" = type { ptr, ptr, ptr }
%"class.std::vector.38" = type { %"struct.std::_Vector_base.39" }
%"struct.std::_Vector_base.39" = type { %"struct.std::_Vector_base<CVQualifiers, std::allocator<CVQualifiers>>::_Vector_impl" }
%"struct.std::_Vector_base<CVQualifiers, std::allocator<CVQualifiers>>::_Vector_impl" = type { %"struct.std::_Vector_base<CVQualifiers, std::allocator<CVQualifiers>>::_Vector_impl_data" }
%"struct.std::_Vector_base<CVQualifiers, std::allocator<CVQualifiers>>::_Vector_impl_data" = type { ptr, ptr, ptr }
%"class.std::vector.43" = type { %"struct.std::_Vector_base.44" }
%"struct.std::_Vector_base.44" = type { %"struct.std::_Vector_base<int, std::allocator<int>>::_Vector_impl" }
%"struct.std::_Vector_base<int, std::allocator<int>>::_Vector_impl" = type { %"struct.std::_Vector_base<int, std::allocator<int>>::_Vector_impl_data" }
%"struct.std::_Vector_base<int, std::allocator<int>>::_Vector_impl_data" = type { ptr, ptr, ptr }

; Function Attrs: mustprogress nounwind uwtable
define linkonce_odr dso_local noundef nonnull align 8 dereferenceable(8) ptr @_ZNKSt6vectorIP8VariableSaIS1_EEixEm(ptr noundef nonnull align 8 dereferenceable(24) %0, i64 noundef %1) #4 comdat align 2 {
  %3 = alloca ptr, align 8
  %4 = alloca i64, align 8
  store ptr %0, ptr %3, align 8, !tbaa !69
  store i64 %1, ptr %4, align 8, !tbaa !42
  %5 = load ptr, ptr %3, align 8
  %6 = getelementptr inbounds nuw %"struct.std::_Vector_base.19", ptr %5, i32 0, i32 0
  %7 = getelementptr inbounds nuw %"struct.std::_Vector_base<Variable *, std::allocator<Variable *>>::_Vector_impl_data", ptr %6, i32 0, i32 0
  %8 = load ptr, ptr %7, align 8, !tbaa !73
  %9 = load i64, ptr %4, align 8, !tbaa !42
  %10 = getelementptr inbounds nuw ptr, ptr %8, i64 %9
  ret ptr %10
}

; Function Attrs: mustprogress nounwind uwtable
define linkonce_odr dso_local noundef i64 @_ZNKSt6vectorIP8VariableSaIS1_EE4sizeEv(ptr noundef nonnull align 8 dereferenceable(24) %0) #4 comdat align 2 {
  %2 = alloca ptr, align 8
  store ptr %0, ptr %2, align 8, !tbaa !69
  %3 = load ptr, ptr %2, align 8
  %4 = getelementptr inbounds nuw %"struct.std::_Vector_base.19", ptr %3, i32 0, i32 0
  %5 = getelementptr inbounds nuw %"struct.std::_Vector_base<Variable *, std::allocator<Variable *>>::_Vector_impl_data", ptr %4, i32 0, i32 1
  %6 = load ptr, ptr %5, align 8, !tbaa !72
  %7 = getelementptr inbounds nuw %"struct.std::_Vector_base.19", ptr %3, i32 0, i32 0
  %8 = getelementptr inbounds nuw %"struct.std::_Vector_base<Variable *, std::allocator<Variable *>>::_Vector_impl_data", ptr %7, i32 0, i32 0
  %9 = load ptr, ptr %8, align 8, !tbaa !73
  %10 = ptrtoint ptr %6 to i64
  %11 = ptrtoint ptr %9 to i64
  %12 = sub i64 %10, %11
  %13 = sdiv exact i64 %12, 8
  ret i64 %13
}

; Function Attrs: mustprogress uwtable
define dso_local noundef zeroext i1 @_ZNK8Variable24is_packed_after_bitfieldEv(ptr noundef nonnull align 8 dereferenceable(200) %0) #6 align 2 {
  %2 = alloca i1, align 1
  %3 = alloca ptr, align 8
  %4 = alloca ptr, align 8
  %5 = alloca i32, align 4
  %6 = alloca i64, align 8
  store ptr %0, ptr %3, align 8, !tbaa !40
  %7 = load ptr, ptr %3, align 8
  call void @llvm.lifetime.start.p0(i64 8, ptr %4) #3
  %8 = getelementptr inbounds nuw %class.Variable, ptr %7, i32 0, i32 11
  %9 = load ptr, ptr %8, align 8, !tbaa !86
  store ptr %9, ptr %4, align 8, !tbaa !40
  %10 = load ptr, ptr %4, align 8, !tbaa !40
  %11 = icmp eq ptr %10, null
  br i1 %11, label %12, label %13

12:                                               ; preds = %1
  store i1 false, ptr %2, align 1
  store i32 1, ptr %5, align 4
  br label %69

13:                                               ; preds = %1
  %14 = load ptr, ptr %4, align 8, !tbaa !40
  %15 = getelementptr inbounds nuw %class.Variable, ptr %14, i32 0, i32 3
  %16 = load ptr, ptr %15, align 8, !tbaa !49
  %17 = getelementptr inbounds nuw %class.Type, ptr %16, i32 0, i32 0
  %18 = load i32, ptr %17, align 8, !tbaa !97
  %19 = icmp eq i32 %18, 3
  br i1 %19, label %20, label %66

20:                                               ; preds = %13
  %21 = load ptr, ptr %4, align 8, !tbaa !40
  %22 = getelementptr inbounds nuw %class.Variable, ptr %21, i32 0, i32 3
  %23 = load ptr, ptr %22, align 8, !tbaa !49
  %24 = getelementptr inbounds nuw %class.Type, ptr %23, i32 0, i32 8
  %25 = load i8, ptr %24, align 2, !tbaa !135, !range !81, !noundef !82
  %26 = trunc i8 %25 to i1
  br i1 %26, label %27, label %66

27:                                               ; preds = %20
  call void @llvm.lifetime.start.p0(i64 8, ptr %6) #3
  store i64 0, ptr %6, align 8, !tbaa !42
  br label %28

28:                                               ; preds = %60, %27
  %29 = load i64, ptr %6, align 8, !tbaa !42
  %30 = load ptr, ptr %4, align 8, !tbaa !40
  %31 = getelementptr inbounds nuw %class.Variable, ptr %30, i32 0, i32 1
  %32 = call noundef i64 @_ZNKSt6vectorIP8VariableSaIS1_EE4sizeEv(ptr noundef nonnull align 8 dereferenceable(24) %31) #3
  %33 = icmp ult i64 %29, %32
  br i1 %33, label %35, label %34

34:                                               ; preds = %28
  store i32 2, ptr %5, align 4
  br label %63

35:                                               ; preds = %28
  %36 = load ptr, ptr %4, align 8, !tbaa !40
  %37 = getelementptr inbounds nuw %class.Variable, ptr %36, i32 0, i32 1
  %38 = load i64, ptr %6, align 8, !tbaa !42
  %39 = call noundef nonnull align 8 dereferenceable(8) ptr @_ZNKSt6vectorIP8VariableSaIS1_EEixEm(ptr noundef nonnull align 8 dereferenceable(24) %37, i64 noundef %38) #3
  %40 = load ptr, ptr %39, align 8, !tbaa !40
  %41 = icmp eq ptr %40, %7
  br i1 %41, label %42, label %43

42:                                               ; preds = %35
  store i32 2, ptr %5, align 4
  br label %63

43:                                               ; preds = %35
  %44 = load ptr, ptr %4, align 8, !tbaa !40
  %45 = getelementptr inbounds nuw %class.Variable, ptr %44, i32 0, i32 3
  %46 = load ptr, ptr %45, align 8, !tbaa !49
  %47 = load i64, ptr %6, align 8, !tbaa !42
  %48 = call noundef zeroext i1 @_ZNK4Type11is_bitfieldEm(ptr noundef nonnull align 8 dereferenceable(136) %46, i64 noundef %47)
  br i1 %48, label %58, label %49

49:                                               ; preds = %43
  %50 = load ptr, ptr %4, align 8, !tbaa !40
  %51 = getelementptr inbounds nuw %class.Variable, ptr %50, i32 0, i32 1
  %52 = load i64, ptr %6, align 8, !tbaa !42
  %53 = call noundef nonnull align 8 dereferenceable(8) ptr @_ZNKSt6vectorIP8VariableSaIS1_EEixEm(ptr noundef nonnull align 8 dereferenceable(24) %51, i64 noundef %52) #3
  %54 = load ptr, ptr %53, align 8, !tbaa !40
  %55 = getelementptr inbounds nuw %class.Variable, ptr %54, i32 0, i32 3
  %56 = load ptr, ptr %55, align 8, !tbaa !49
  %57 = call noundef zeroext i1 @_ZNK4Type13has_bitfieldsEv(ptr noundef nonnull align 8 dereferenceable(136) %56)
  br i1 %57, label %58, label %59

58:                                               ; preds = %49, %43
  store i1 true, ptr %2, align 1
  store i32 1, ptr %5, align 4
  br label %63

59:                                               ; preds = %49
  br label %60

60:                                               ; preds = %59
  %61 = load i64, ptr %6, align 8, !tbaa !42
  %62 = add i64 %61, 1
  store i64 %62, ptr %6, align 8, !tbaa !42
  br label %28, !llvm.loop !254

63:                                               ; preds = %58, %42, %34
  call void @llvm.lifetime.end.p0(i64 8, ptr %6) #3
  %64 = load i32, ptr %5, align 4
  switch i32 %64, label %69 [
    i32 2, label %65
  ]

65:                                               ; preds = %63
  br label %66

66:                                               ; preds = %65, %20, %13
  %67 = load ptr, ptr %4, align 8, !tbaa !40
  %68 = call noundef zeroext i1 @_ZNK8Variable24is_packed_after_bitfieldEv(ptr noundef nonnull align 8 dereferenceable(200) %67)
  store i1 %68, ptr %2, align 1
  store i32 1, ptr %5, align 4
  br label %69

69:                                               ; preds = %66, %63, %12
  call void @llvm.lifetime.end.p0(i64 8, ptr %4) #3
  %70 = load i1, ptr %2, align 1
  ret i1 %70
}