; Function Attrs: mustprogress uwtable
define dso_local noundef zeroext i1 @_ZNK8Variable24is_packed_after_bitfieldEv(ptr noundef nonnull readonly align 8 captures(address) dereferenceable(200) %0) local_unnamed_addr #5 align 2 {
  %2 = getelementptr inbounds nuw i8, ptr %0, i64 88
  %3 = load ptr, ptr %2, align 8, !tbaa !80
  %4 = icmp eq ptr %3, null
  br i1 %4, label %.loopexit, label %.lr.ph22

.lr.ph22:                                         ; preds = %1, %.critedge
  %5 = phi ptr [ %42, %.critedge ], [ %3, %1 ]
  %.tr21 = phi ptr [ %5, %.critedge ], [ %0, %1 ]
  %6 = getelementptr inbounds nuw i8, ptr %5, i64 64
  %7 = load ptr, ptr %6, align 8, !tbaa !39
  %8 = load i32, ptr %7, align 8, !tbaa !57
  %9 = icmp eq i32 %8, 3
  br i1 %9, label %10, label %.critedge

10:                                               ; preds = %.lr.ph22
  %11 = getelementptr inbounds nuw i8, ptr %7, i64 78
  %12 = load i8, ptr %11, align 2, !tbaa !115, !range !104, !noundef !105
  %13 = trunc nuw i8 %12 to i1
  br i1 %13, label %.preheader, label %.critedge

.preheader:                                       ; preds = %10
  %14 = getelementptr inbounds nuw i8, ptr %5, i64 8
  %15 = getelementptr inbounds nuw i8, ptr %5, i64 16
  %16 = load ptr, ptr %15, align 8, !tbaa !83
  %17 = load ptr, ptr %14, align 8, !tbaa !84
  %.not = icmp eq ptr %16, %17
  br i1 %.not, label %.critedge, label %.lr.ph

18:                                               ; preds = %34
  %19 = add nuw i64 %.019, 1
  %20 = load ptr, ptr %15, align 8, !tbaa !83
  %21 = load ptr, ptr %14, align 8, !tbaa !84
  %22 = ptrtoint ptr %20 to i64
  %23 = ptrtoint ptr %21 to i64
  %24 = sub i64 %22, %23
  %25 = ashr exact i64 %24, 3
  %26 = icmp ult i64 %19, %25
  br i1 %26, label %.lr.ph, label %.critedge, !llvm.loop !333

.lr.ph:                                           ; preds = %.preheader, %18
  %27 = phi ptr [ %21, %18 ], [ %17, %.preheader ]
  %.019 = phi i64 [ %19, %18 ], [ 0, %.preheader ]
  %28 = getelementptr inbounds nuw ptr, ptr %27, i64 %.019
  %29 = load ptr, ptr %28, align 8, !tbaa !37
  %30 = icmp eq ptr %29, %.tr21
  br i1 %30, label %.critedge, label %31

31:                                               ; preds = %.lr.ph
  %32 = load ptr, ptr %6, align 8, !tbaa !39
  %33 = tail call noundef zeroext i1 @_ZNK4Type11is_bitfieldEm(ptr noundef nonnull align 8 dereferenceable(136) %32, i64 noundef %.019)
  br i1 %33, label %.loopexit, label %34

34:                                               ; preds = %31
  %35 = load ptr, ptr %14, align 8, !tbaa !84
  %36 = getelementptr inbounds nuw ptr, ptr %35, i64 %.019
  %37 = load ptr, ptr %36, align 8, !tbaa !37
  %38 = getelementptr inbounds nuw i8, ptr %37, i64 64
  %39 = load ptr, ptr %38, align 8, !tbaa !39
  %40 = tail call noundef zeroext i1 @_ZNK4Type13has_bitfieldsEv(ptr noundef nonnull align 8 dereferenceable(136) %39)
  br i1 %40, label %.loopexit, label %18

.critedge:                                        ; preds = %.lr.ph, %18, %.preheader, %10, %.lr.ph22
  %41 = getelementptr inbounds nuw i8, ptr %5, i64 88
  %42 = load ptr, ptr %41, align 8, !tbaa !80
  %43 = icmp eq ptr %42, null
  br i1 %43, label %.loopexit, label %.lr.ph22

.loopexit:                                        ; preds = %.critedge, %34, %31, %1
  %.016 = phi i1 [ false, %1 ], [ true, %31 ], [ true, %34 ], [ false, %.critedge ]
  ret i1 %.016
}